Certificate:
    Data:
        Version: 3 (0x2)
        Serial Number: 1 (0x1)
    Signature Algorithm: md5WithRSAEncryption
        Issuer: C=FR, ST=Radius, L=Somewhere, O=Example Inc./emailAddress=admin@example.com, CN=Example Certificate Authority
        Validity
            Not Before: Jul  7 21:00:34 2017 GMT
            Not After : Jul  7 21:00:34 2018 GMT
        Subject: C=FR, ST=Radius, O=Example Inc., CN=Example Server Certificate/emailAddress=admin@example.com
        Subject Public Key Info:
            Public Key Algorithm: rsaEncryption
                Public-Key: (2048 bit)
                Modulus:
                    00:cd:55:10:44:7e:8e:13:04:0e:ad:4d:e8:d3:3d:
                    49:91:88:42:56:2b:ab:1d:3b:74:45:8c:98:8b:fd:
                    02:6c:c6:11:07:da:0c:19:58:a6:1d:02:0b:22:47:
                    a9:54:70:08:51:9e:5c:65:f0:62:3e:27:f8:1e:6f:
                    80:bd:d3:64:8a:4e:60:58:37:0f:96:07:95:a4:3d:
                    9a:40:f7:f8:40:3f:22:ac:85:20:55:f5:4a:c0:91:
                    bf:2a:3c:27:98:34:34:73:8a:18:49:8b:67:89:b2:
                    d7:a1:56:20:12:6c:93:f8:52:d7:d4:10:d6:c8:76:
                    c2:e5:b9:58:2c:a9:aa:53:92:66:b8:2e:f6:47:68:
                    43:5c:1a:31:70:ca:24:d3:02:a0:6f:8c:1e:d4:cf:
                    02:db:99:a2:99:c1:fd:a4:64:96:8b:e3:85:fb:24:
                    fa:4b:7f:83:25:93:09:24:f9:53:c3:c9:43:5c:11:
                    88:57:64:7f:6f:7e:ac:8b:7a:1d:98:22:c0:a6:71:
                    a3:90:42:85:48:bc:b0:29:c7:ba:cd:3c:09:34:26:
                    08:c4:6b:72:18:ea:32:b6:be:fc:19:a4:47:16:0e:
                    52:77:35:fd:c4:07:69:c7:29:65:3d:2c:78:4d:9e:
                    a6:cf:79:f4:b7:4e:04:c9:f9:e1:9c:52:76:29:79:
                    27:c5
                Exponent: 65537 (0x10001)
        X509v3 extensions:
            X509v3 Extended Key Usage: 
                TLS Web Server Authentication
    Signature Algorithm: md5WithRSAEncryption
         9d:0f:9f:b0:8a:a4:60:e6:c1:f0:40:81:e6:04:13:1c:c8:7e:
         ed:9d:a5:e8:4f:13:fe:15:44:32:d6:5e:7a:c7:ac:e7:69:c5:
         49:5b:68:af:73:3c:20:bb:d9:b4:12:8f:8d:54:a8:97:b7:2e:
         68:1f:2e:30:d7:78:0a:bc:7a:f6:0b:e5:58:fa:18:fd:96:33:
         9e:0d:09:51:9e:38:b3:05:93:db:6f:d7:ef:a9:c4:92:ff:66:
         42:a8:7d:37:f4:ee:a6:bb:8f:9a:2c:58:27:aa:95:84:cd:a9:
         3d:ff:01:4b:78:d9:97:28:f3:24:17:cc:de:dd:ff:90:65:af:
         87:7a:0c:5d:50:86:43:f8:11:2c:a7:b3:b8:1d:23:94:b9:71:
         a7:e7:f1:8d:0a:5f:1e:3d:a4:79:c5:69:1d:1b:b2:62:4c:7d:
         2a:f3:9b:f8:fc:eb:67:d3:91:ce:4a:91:8e:17:7a:d1:f0:86:
         bb:fc:dd:bb:bf:05:d8:ff:e9:03:c5:c5:27:a2:1f:b2:ff:f6:
         d7:8a:95:b8:e8:66:e3:a4:02:64:57:be:5d:4c:6b:89:0e:95:
         b4:e5:9c:b9:cd:44:3f:68:31:fe:f3:eb:dd:0e:98:2e:ae:23:
         1b:e1:c1:91:65:5d:4b:9a:dc:9a:97:13:4e:d9:53:56:2a:d2:
         bb:11:a5:a6
-----BEGIN CERTIFICATE-----
MIIDojCCAoqgAwIBAgIBATANBgkqhkiG9w0BAQQFADCBkzELMAkGA1UEBhMCRlIx
DzANBgNVBAgMBlJhZGl1czESMBAGA1UEBwwJU29tZXdoZXJlMRUwEwYDVQQKDAxF
eGFtcGxlIEluYy4xIDAeBgkqhkiG9w0BCQEWEWFkbWluQGV4YW1wbGUuY29tMSYw
JAYDVQQDDB1FeGFtcGxlIENlcnRpZmljYXRlIEF1dGhvcml0eTAeFw0xNzA3MDcy
MTAwMzRaFw0xODA3MDcyMTAwMzRaMHwxCzAJBgNVBAYTAkZSMQ8wDQYDVQQIDAZS
YWRpdXMxFTATBgNVBAoMDEV4YW1wbGUgSW5jLjEjMCEGA1UEAwwaRXhhbXBsZSBT
ZXJ2ZXIgQ2VydGlmaWNhdGUxIDAeBgkqhkiG9w0BCQEWEWFkbWluQGV4YW1wbGUu
Y29tMIIBIjANBgkqhkiG9w0BAQEFAAOCAQ8AMIIBCgKCAQEAzVUQRH6OEwQOrU3o
0z1JkYhCViurHTt0RYyYi/0CbMYRB9oMGVimHQILIkepVHAIUZ5cZfBiPif4Hm+A
vdNkik5gWDcPlgeVpD2aQPf4QD8irIUgVfVKwJG/KjwnmDQ0c4oYSYtnibLXoVYg
EmyT+FLX1BDWyHbC5blYLKmqU5JmuC72R2hDXBoxcMok0wKgb4we1M8C25mimcH9
pGSWi+OF+yT6S3+DJZMJJPlTw8lDXBGIV2R/b36si3odmCLApnGjkEKFSLywKce6
zTwJNCYIxGtyGOoytr78GaRHFg5SdzX9xAdpxyllPSx4TZ6mz3n0t04EyfnhnFJ2
KXknxQIDAQABoxcwFTATBgNVHSUEDDAKBggrBgEFBQcDATANBgkqhkiG9w0BAQQF
AAOCAQEAnQ+fsIqkYObB8ECB5gQTHMh+7Z2l6E8T/hVEMtZeeses52nFSVtor3M8
ILvZtBKPjVSol7cuaB8uMNd4Crx69gvlWPoY/ZYzng0JUZ44swWT22/X76nEkv9m
Qqh9N/TupruPmixYJ6qVhM2pPf8BS3jZlyjzJBfM3t3/kGWvh3oMXVCGQ/gRLKez
uB0jlLlxp+fxjQpfHj2kecVpHRuyYkx9KvOb+PzrZ9ORzkqRjhd60fCGu/zdu78F
2P/pA8XFJ6Ifsv/214qVuOhm46QCZFe+XUxriQ6VtOWcuc1EP2gx/vPr3Q6YLq4j
G+HBkWVdS5rcmpcTTtlTVirSuxGlpg==
-----END CERTIFICATE-----
