Certificate:
    Data:
        Version: 3 (0x2)
        Serial Number: 1 (0x1)
    Signature Algorithm: md5WithRSAEncryption
        Issuer: C=FR, ST=Radius, L=Somewhere, O=Example Inc./emailAddress=admin@example.com, CN=Example Certificate Authority
        Validity
            Not Before: Jul  7 21:09:58 2017 GMT
            Not After : Jul  7 21:09:58 2018 GMT
        Subject: C=FR, ST=Radius, O=Example Inc., CN=Example Server Certificate/emailAddress=admin@example.com
        Subject Public Key Info:
            Public Key Algorithm: rsaEncryption
                Public-Key: (2048 bit)
                Modulus:
                    00:db:ce:f1:16:c2:da:98:b9:75:73:95:b6:49:7b:
                    17:47:49:8e:10:dd:27:43:13:11:92:b6:99:2f:b8:
                    56:7d:ee:b4:e3:cd:02:cc:1d:25:b2:10:3d:5a:8b:
                    c7:de:cd:f9:29:55:8d:e2:33:0b:95:2f:78:8a:60:
                    25:4d:32:68:95:f9:05:a7:6b:b6:c2:c4:cc:92:a5:
                    aa:5c:31:d0:99:8a:37:5b:a5:e3:ec:2d:fd:17:85:
                    18:90:8e:01:48:bb:d3:06:37:a4:81:ba:03:66:0a:
                    64:49:9a:93:f0:b0:f6:1a:55:f2:27:16:b3:d4:b5:
                    d7:70:03:62:83:9d:04:1f:4f:b6:88:45:9a:79:42:
                    1e:57:70:9e:86:ec:fc:49:61:bd:95:65:5a:1f:a5:
                    a8:2c:47:57:ab:c7:56:07:bc:a0:82:9f:26:95:c5:
                    1e:f2:49:da:19:b5:ec:55:67:d7:cc:d5:33:85:8c:
                    4c:ff:03:32:4b:00:a9:a3:b3:b9:e2:52:9a:92:df:
                    2f:4a:de:02:9f:54:a1:87:5a:3d:8b:e9:2a:44:d5:
                    26:39:31:1c:bd:2b:b2:dd:e1:b7:04:24:e3:81:85:
                    b9:84:4e:b8:ba:e3:93:bd:48:9d:40:9d:b7:5b:0e:
                    67:4c:b6:90:6a:4c:90:cb:c5:2d:ed:fd:af:02:2b:
                    59:c9
                Exponent: 65537 (0x10001)
        X509v3 extensions:
            X509v3 Extended Key Usage: 
                TLS Web Server Authentication
    Signature Algorithm: md5WithRSAEncryption
         38:bb:88:9a:c5:f7:40:1a:b4:a2:27:16:4e:3c:22:af:ea:ff:
         d2:b8:2b:f1:ba:f5:71:05:5b:18:51:aa:b3:6f:93:dc:bb:17:
         3b:a1:19:2e:22:01:7d:2d:3f:87:99:b5:9a:ca:d5:ed:08:3e:
         af:ae:77:ce:4f:70:cf:f8:ab:a6:b2:f2:a8:14:fe:67:5c:bc:
         f7:53:1c:b4:58:6f:ab:21:5b:6e:e2:01:4f:2b:d0:1a:38:bf:
         54:a5:7e:ba:67:70:d0:5a:a7:6c:10:ee:75:71:69:0f:0c:1b:
         0d:97:97:fe:13:75:aa:9f:b0:ff:95:6c:43:7a:0a:a5:01:11:
         e3:db:d2:25:d3:b3:4b:a3:f0:ae:5e:ed:83:d9:67:d6:ec:42:
         dc:fa:aa:46:6a:a8:d2:de:22:ee:45:aa:cc:b5:35:12:0b:c7:
         6c:7b:8f:b1:ab:d8:2b:26:f1:47:6d:c2:81:65:12:83:e6:43:
         e5:a3:77:e8:8d:21:95:12:a2:38:10:5a:6e:e9:df:37:69:cb:
         5f:eb:fe:9c:b9:b1:8e:ec:3f:0f:62:f2:9b:9a:0b:c0:81:07:
         84:b6:93:8d:1e:be:d3:e4:af:a0:91:c9:96:21:e5:31:1a:b8:
         78:11:a9:22:d8:d0:49:7b:f1:1a:5c:4e:b0:85:da:5c:41:27:
         6d:32:81:17
-----BEGIN CERTIFICATE-----
MIIDojCCAoqgAwIBAgIBATANBgkqhkiG9w0BAQQFADCBkzELMAkGA1UEBhMCRlIx
DzANBgNVBAgMBlJhZGl1czESMBAGA1UEBwwJU29tZXdoZXJlMRUwEwYDVQQKDAxF
eGFtcGxlIEluYy4xIDAeBgkqhkiG9w0BCQEWEWFkbWluQGV4YW1wbGUuY29tMSYw
JAYDVQQDDB1FeGFtcGxlIENlcnRpZmljYXRlIEF1dGhvcml0eTAeFw0xNzA3MDcy
MTA5NThaFw0xODA3MDcyMTA5NThaMHwxCzAJBgNVBAYTAkZSMQ8wDQYDVQQIDAZS
YWRpdXMxFTATBgNVBAoMDEV4YW1wbGUgSW5jLjEjMCEGA1UEAwwaRXhhbXBsZSBT
ZXJ2ZXIgQ2VydGlmaWNhdGUxIDAeBgkqhkiG9w0BCQEWEWFkbWluQGV4YW1wbGUu
Y29tMIIBIjANBgkqhkiG9w0BAQEFAAOCAQ8AMIIBCgKCAQEA287xFsLamLl1c5W2
SXsXR0mOEN0nQxMRkraZL7hWfe60480CzB0lshA9WovH3s35KVWN4jMLlS94imAl
TTJolfkFp2u2wsTMkqWqXDHQmYo3W6Xj7C39F4UYkI4BSLvTBjekgboDZgpkSZqT
8LD2GlXyJxaz1LXXcANig50EH0+2iEWaeUIeV3Cehuz8SWG9lWVaH6WoLEdXq8dW
B7yggp8mlcUe8knaGbXsVWfXzNUzhYxM/wMySwCpo7O54lKakt8vSt4Cn1Shh1o9
i+kqRNUmOTEcvSuy3eG3BCTjgYW5hE64uuOTvUidQJ23Ww5nTLaQakyQy8Ut7f2v
AitZyQIDAQABoxcwFTATBgNVHSUEDDAKBggrBgEFBQcDATANBgkqhkiG9w0BAQQF
AAOCAQEAOLuImsX3QBq0oicWTjwir+r/0rgr8br1cQVbGFGqs2+T3LsXO6EZLiIB
fS0/h5m1msrV7Qg+r653zk9wz/irprLyqBT+Z1y891MctFhvqyFbbuIBTyvQGji/
VKV+umdw0FqnbBDudXFpDwwbDZeX/hN1qp+w/5VsQ3oKpQER49vSJdOzS6Pwrl7t
g9ln1uxC3PqqRmqo0t4i7kWqzLU1EgvHbHuPsavYKybxR23CgWUSg+ZD5aN36I0h
lRKiOBBabunfN2nLX+v+nLmxjuw/D2Lym5oLwIEHhLaTjR6+0+SvoJHJliHlMRq4
eBGpItjQSXvxGlxOsIXaXEEnbTKBFw==
-----END CERTIFICATE-----
